; Function Attrs: nounwind uwtable
define void @Abc_NtkSetNodeLevelsArrival(ptr noundef readonly captures(none) %0) local_unnamed_addr #3 {
  %2 = getelementptr inbounds nuw i8, ptr %0, i64 264
  %3 = load ptr, ptr %2, align 8
  %4 = icmp eq ptr %3, null
  br i1 %4, label %.critedge, label %5

5:                                                ; preds = %1
  %6 = tail call ptr (...) @Abc_FrameReadLibGen() #22
  %7 = icmp eq ptr %6, null
  br i1 %7, label %.critedge, label %8

8:                                                ; preds = %5
  %9 = tail call ptr (...) @Abc_FrameReadLibGen() #22
  %10 = tail call ptr @Mio_LibraryReadNand2(ptr noundef %9) #22
  %11 = icmp eq ptr %10, null
  br i1 %11, label %.critedge, label %12

12:                                               ; preds = %8
  %13 = tail call ptr (...) @Abc_FrameReadLibGen() #22
  %14 = tail call float @Mio_LibraryReadDelayNand2Max(ptr noundef %13) #22
  %15 = getelementptr i8, ptr %0, i64 56
  %.val10 = load ptr, ptr %15, align 8
  %16 = getelementptr i8, ptr %.val10, i64 4
  %.val.val11 = load i32, ptr %16, align 4
  %17 = icmp sgt i32 %.val.val11, 0
  br i1 %17, label %.lr.ph, label %.critedge

.lr.ph:                                           ; preds = %12, %.lr.ph
  %indvars.iv = phi i64 [ %indvars.iv.next, %.lr.ph ], [ 0, %12 ]
  %.val13 = phi ptr [ %.val, %.lr.ph ], [ %.val10, %12 ]
  %18 = getelementptr i8, ptr %.val13, i64 8
  %.val9.val = load ptr, ptr %18, align 8
  %19 = getelementptr inbounds nuw ptr, ptr %.val9.val, i64 %indvars.iv
  %20 = load ptr, ptr %19, align 8
  %21 = getelementptr inbounds nuw i8, ptr %20, i64 64
  %22 = load ptr, ptr %21, align 8
  %.val3.i = load ptr, ptr %20, align 8
  %23 = getelementptr i8, ptr %20, i64 16
  %.val4.i = load i32, ptr %23, align 8
  %24 = getelementptr i8, ptr %.val3.i, i64 264
  %.val3.val.i = load ptr, ptr %24, align 8
  %25 = getelementptr i8, ptr %.val3.val.i, i64 16
  %.val3.val.val.i = load ptr, ptr %25, align 8
  %26 = getelementptr i8, ptr %.val3.val.val.i, i64 8
  %.val3.val.val.val.i = load ptr, ptr %26, align 8
  %27 = sext i32 %.val4.i to i64
  %28 = getelementptr inbounds ptr, ptr %.val3.val.val.val.i, i64 %27
  %29 = load ptr, ptr %28, align 8
  %30 = load float, ptr %29, align 4
  %31 = getelementptr inbounds nuw i8, ptr %29, i64 4
  %32 = load float, ptr %31, align 4
  %33 = fcmp ogt float %30, %32
  %34 = select i1 %33, float %30, float %32
  %35 = fdiv float %34, %14
  %36 = fptosi float %35 to i32
  %37 = getelementptr inbounds nuw i8, ptr %22, i64 20
  %38 = load i32, ptr %37, align 4
  %39 = shl i32 %36, 12
  %40 = and i32 %38, 4095
  %41 = or disjoint i32 %39, %40
  store i32 %41, ptr %37, align 4
  %indvars.iv.next = add nuw nsw i64 %indvars.iv, 1
  %.val = load ptr, ptr %15, align 8
  %42 = getelementptr i8, ptr %.val, i64 4
  %.val.val = load i32, ptr %42, align 4
  %43 = sext i32 %.val.val to i64
  %44 = icmp slt i64 %indvars.iv.next, %43
  br i1 %44, label %.lr.ph, label %.critedge, !llvm.loop !29

.critedge:                                        ; preds = %.lr.ph, %12, %5, %8, %1
  ret void
}